target datalayout = "e-m:e-p270:32:32-p271:32:32-p272:64:64-i64:64-i128:128-f80:128-n8:16:32:64-S128"
target triple = "x86_64-pc-linux-gnu"

%struct._lv_calendar_t = type { %struct._lv_obj_t, ptr, %struct.lv_calendar_date_t, %struct.lv_calendar_date_t, ptr, i64, [56 x ptr], i8, [42 x [20 x i8]] }
%struct._lv_obj_t = type { ptr, ptr, ptr, ptr, ptr, %struct.lv_area_t, i32, i16, i16 }
%struct.lv_area_t = type { i32, i32, i32, i32 }
%struct.lv_calendar_date_t = type { i16, i8, i8 }

; Function Attrs: nounwind uwtable
define internal zeroext i8 @get_day_of_week(i32 noundef %0, i32 noundef %1, i32 noundef %2) #0 {
  %4 = alloca i32, align 4
  %5 = alloca i32, align 4
  %6 = alloca i32, align 4
  %7 = alloca i32, align 4
  %8 = alloca i32, align 4
  %9 = alloca i32, align 4
  store i32 %0, ptr %4, align 4, !tbaa !27
  store i32 %1, ptr %5, align 4, !tbaa !27
  store i32 %2, ptr %6, align 4, !tbaa !27
  call void @llvm.lifetime.start.p0(i64 4, ptr %7) #5
  %10 = load i32, ptr %5, align 4, !tbaa !27
  %11 = icmp ult i32 %10, 3
  %12 = select i1 %11, i32 1, i32 0
  store i32 %12, ptr %7, align 4, !tbaa !27
  call void @llvm.lifetime.start.p0(i64 4, ptr %8) #5
  %13 = load i32, ptr %4, align 4, !tbaa !27
  %14 = load i32, ptr %7, align 4, !tbaa !27
  %15 = sub i32 %13, %14
  store i32 %15, ptr %8, align 4, !tbaa !27
  call void @llvm.lifetime.start.p0(i64 4, ptr %9) #5
  %16 = load i32, ptr %6, align 4, !tbaa !27
  %17 = load i32, ptr %5, align 4, !tbaa !27
  %18 = sub i32 %17, 2
  %19 = load i32, ptr %7, align 4, !tbaa !27
  %20 = mul i32 12, %19
  %21 = add i32 %18, %20
  %22 = mul i32 31, %21
  %23 = udiv i32 %22, 12
  %24 = add i32 %16, %23
  %25 = load i32, ptr %8, align 4, !tbaa !27
  %26 = add i32 %24, %25
  %27 = load i32, ptr %8, align 4, !tbaa !27
  %28 = udiv i32 %27, 4
  %29 = add i32 %26, %28
  %30 = load i32, ptr %8, align 4, !tbaa !27
  %31 = udiv i32 %30, 100
  %32 = sub i32 %29, %31
  %33 = load i32, ptr %8, align 4, !tbaa !27
  %34 = udiv i32 %33, 400
  %35 = add i32 %32, %34
  %36 = urem i32 %35, 7
  store i32 %36, ptr %9, align 4, !tbaa !27
  %37 = load i32, ptr %9, align 4, !tbaa !27
  %38 = trunc i32 %37 to i8
  call void @llvm.lifetime.end.p0(i64 4, ptr %9) #5
  call void @llvm.lifetime.end.p0(i64 4, ptr %8) #5
  call void @llvm.lifetime.end.p0(i64 4, ptr %7) #5
  ret i8 %38
}

; Function Attrs: nounwind uwtable
define internal void @highlight_update(ptr noundef %0) #0 {
  %2 = alloca ptr, align 8
  %3 = alloca ptr, align 8
  %4 = alloca i32, align 4
  %5 = alloca i8, align 1
  store ptr %0, ptr %2, align 8, !tbaa !3
  call void @llvm.lifetime.start.p0(i64 8, ptr %3) #5
  %6 = load ptr, ptr %2, align 8, !tbaa !3
  store ptr %6, ptr %3, align 8, !tbaa !3
  call void @llvm.lifetime.start.p0(i64 4, ptr %4) #5
  %7 = load ptr, ptr %3, align 8, !tbaa !3
  %8 = getelementptr inbounds nuw %struct._lv_calendar_t, ptr %7, i32 0, i32 1
  %9 = load ptr, ptr %8, align 8, !tbaa !26
  call void @lv_buttonmatrix_clear_button_ctrl_all(ptr noundef %9, i32 noundef 49152)
  call void @llvm.lifetime.start.p0(i64 1, ptr %5) #5
  %10 = load ptr, ptr %3, align 8, !tbaa !3
  %11 = getelementptr inbounds nuw %struct._lv_calendar_t, ptr %10, i32 0, i32 3
  %12 = getelementptr inbounds nuw %struct.lv_calendar_date_t, ptr %11, i32 0, i32 0
  %13 = load i16, ptr %12, align 4, !tbaa !18
  %14 = zext i16 %13 to i32
  %15 = load ptr, ptr %3, align 8, !tbaa !3
  %16 = getelementptr inbounds nuw %struct._lv_calendar_t, ptr %15, i32 0, i32 3
  %17 = getelementptr inbounds nuw %struct.lv_calendar_date_t, ptr %16, i32 0, i32 1
  %18 = load i8, ptr %17, align 2, !tbaa !19
  %19 = sext i8 %18 to i32
  %20 = call zeroext i8 @get_day_of_week(i32 noundef %14, i32 noundef %19, i32 noundef 1)
  store i8 %20, ptr %5, align 1, !tbaa !23
  %21 = load ptr, ptr %3, align 8, !tbaa !3
  %22 = getelementptr inbounds nuw %struct._lv_calendar_t, ptr %21, i32 0, i32 4
  %23 = load ptr, ptr %22, align 8, !tbaa !21
  %24 = icmp ne ptr %23, null
  br i1 %24, label %25, label %88

25:                                               ; preds = %1
  store i32 0, ptr %4, align 4, !tbaa !27
  br label %26

26:                                               ; preds = %84, %25
  %27 = load i32, ptr %4, align 4, !tbaa !27
  %28 = zext i32 %27 to i64
  %29 = load ptr, ptr %3, align 8, !tbaa !3
  %30 = getelementptr inbounds nuw %struct._lv_calendar_t, ptr %29, i32 0, i32 5
  %31 = load i64, ptr %30, align 8, !tbaa !22
  %32 = icmp ult i64 %28, %31
  br i1 %32, label %33, label %87

33:                                               ; preds = %26
  %34 = load ptr, ptr %3, align 8, !tbaa !3
  %35 = getelementptr inbounds nuw %struct._lv_calendar_t, ptr %34, i32 0, i32 4
  %36 = load ptr, ptr %35, align 8, !tbaa !21
  %37 = load i32, ptr %4, align 4, !tbaa !27
  %38 = zext i32 %37 to i64
  %39 = getelementptr inbounds nuw %struct.lv_calendar_date_t, ptr %36, i64 %38
  %40 = getelementptr inbounds nuw %struct.lv_calendar_date_t, ptr %39, i32 0, i32 0
  %41 = load i16, ptr %40, align 2, !tbaa !29
  %42 = zext i16 %41 to i32
  %43 = load ptr, ptr %3, align 8, !tbaa !3
  %44 = getelementptr inbounds nuw %struct._lv_calendar_t, ptr %43, i32 0, i32 3
  %45 = getelementptr inbounds nuw %struct.lv_calendar_date_t, ptr %44, i32 0, i32 0
  %46 = load i16, ptr %45, align 4, !tbaa !18
  %47 = zext i16 %46 to i32
  %48 = icmp eq i32 %42, %47
  br i1 %48, label %49, label %83

49:                                               ; preds = %33
  %50 = load ptr, ptr %3, align 8, !tbaa !3
  %51 = getelementptr inbounds nuw %struct._lv_calendar_t, ptr %50, i32 0, i32 4
  %52 = load ptr, ptr %51, align 8, !tbaa !21
  %53 = load i32, ptr %4, align 4, !tbaa !27
  %54 = zext i32 %53 to i64
  %55 = getelementptr inbounds nuw %struct.lv_calendar_date_t, ptr %52, i64 %54
  %56 = getelementptr inbounds nuw %struct.lv_calendar_date_t, ptr %55, i32 0, i32 1
  %57 = load i8, ptr %56, align 2, !tbaa !30
  %58 = sext i8 %57 to i32
  %59 = load ptr, ptr %3, align 8, !tbaa !3
  %60 = getelementptr inbounds nuw %struct._lv_calendar_t, ptr %59, i32 0, i32 3
  %61 = getelementptr inbounds nuw %struct.lv_calendar_date_t, ptr %60, i32 0, i32 1
  %62 = load i8, ptr %61, align 2, !tbaa !19
  %63 = sext i8 %62 to i32
  %64 = icmp eq i32 %58, %63
  br i1 %64, label %65, label %83

65:                                               ; preds = %49
  %66 = load ptr, ptr %3, align 8, !tbaa !3
  %67 = getelementptr inbounds nuw %struct._lv_calendar_t, ptr %66, i32 0, i32 1
  %68 = load ptr, ptr %67, align 8, !tbaa !26
  %69 = load ptr, ptr %3, align 8, !tbaa !3
  %70 = getelementptr inbounds nuw %struct._lv_calendar_t, ptr %69, i32 0, i32 4
  %71 = load ptr, ptr %70, align 8, !tbaa !21
  %72 = load i32, ptr %4, align 4, !tbaa !27
  %73 = zext i32 %72 to i64
  %74 = getelementptr inbounds nuw %struct.lv_calendar_date_t, ptr %71, i64 %73
  %75 = getelementptr inbounds nuw %struct.lv_calendar_date_t, ptr %74, i32 0, i32 2
  %76 = load i8, ptr %75, align 1, !tbaa !31
  %77 = sext i8 %76 to i32
  %78 = sub nsw i32 %77, 1
  %79 = load i8, ptr %5, align 1, !tbaa !23
  %80 = zext i8 %79 to i32
  %81 = add nsw i32 %78, %80
  %82 = add nsw i32 %81, 7
  call void @lv_buttonmatrix_set_button_ctrl(ptr noundef %68, i32 noundef %82, i32 noundef 32768)
  br label %83

83:                                               ; preds = %65, %49, %33
  br label %84

84:                                               ; preds = %83
  %85 = load i32, ptr %4, align 4, !tbaa !27
  %86 = add i32 %85, 1
  store i32 %86, ptr %4, align 4, !tbaa !27
  br label %26, !llvm.loop !32

87:                                               ; preds = %26
  br label %88

88:                                               ; preds = %87, %1
  %89 = load ptr, ptr %3, align 8, !tbaa !3
  %90 = getelementptr inbounds nuw %struct._lv_calendar_t, ptr %89, i32 0, i32 3
  %91 = getelementptr inbounds nuw %struct.lv_calendar_date_t, ptr %90, i32 0, i32 0
  %92 = load i16, ptr %91, align 4, !tbaa !18
  %93 = zext i16 %92 to i32
  %94 = load ptr, ptr %3, align 8, !tbaa !3
  %95 = getelementptr inbounds nuw %struct._lv_calendar_t, ptr %94, i32 0, i32 2
  %96 = getelementptr inbounds nuw %struct.lv_calendar_date_t, ptr %95, i32 0, i32 0
  %97 = load i16, ptr %96, align 8, !tbaa !7
  %98 = zext i16 %97 to i32
  %99 = icmp eq i32 %93, %98
  br i1 %99, label %100, label %126

100:                                              ; preds = %88
  %101 = load ptr, ptr %3, align 8, !tbaa !3
  %102 = getelementptr inbounds nuw %struct._lv_calendar_t, ptr %101, i32 0, i32 3
  %103 = getelementptr inbounds nuw %struct.lv_calendar_date_t, ptr %102, i32 0, i32 1
  %104 = load i8, ptr %103, align 2, !tbaa !19
  %105 = sext i8 %104 to i32
  %106 = load ptr, ptr %3, align 8, !tbaa !3
  %107 = getelementptr inbounds nuw %struct._lv_calendar_t, ptr %106, i32 0, i32 2
  %108 = getelementptr inbounds nuw %struct.lv_calendar_date_t, ptr %107, i32 0, i32 1
  %109 = load i8, ptr %108, align 2, !tbaa !16
  %110 = sext i8 %109 to i32
  %111 = icmp eq i32 %105, %110
  br i1 %111, label %112, label %126

112:                                              ; preds = %100
  %113 = load ptr, ptr %3, align 8, !tbaa !3
  %114 = getelementptr inbounds nuw %struct._lv_calendar_t, ptr %113, i32 0, i32 1
  %115 = load ptr, ptr %114, align 8, !tbaa !26
  %116 = load ptr, ptr %3, align 8, !tbaa !3
  %117 = getelementptr inbounds nuw %struct._lv_calendar_t, ptr %116, i32 0, i32 2
  %118 = getelementptr inbounds nuw %struct.lv_calendar_date_t, ptr %117, i32 0, i32 2
  %119 = load i8, ptr %118, align 1, !tbaa !17
  %120 = sext i8 %119 to i32
  %121 = sub nsw i32 %120, 1
  %122 = load i8, ptr %5, align 1, !tbaa !23
  %123 = zext i8 %122 to i32
  %124 = add nsw i32 %121, %123
  %125 = add nsw i32 %124, 7
  call void @lv_buttonmatrix_set_button_ctrl(ptr noundef %115, i32 noundef %125, i32 noundef 16384)
  br label %126

126:                                              ; preds = %112, %100, %88
  call void @llvm.lifetime.end.p0(i64 1, ptr %5) #5
  call void @llvm.lifetime.end.p0(i64 4, ptr %4) #5
  call void @llvm.lifetime.end.p0(i64 8, ptr %3) #5
  ret void
}