; Function Attrs: nounwind uwtable
define internal fastcc void @highlight_update(ptr nocapture noundef readonly %0) unnamed_addr #0 {
  %2 = getelementptr inbounds nuw i8, ptr %0, i64 64
  %3 = load ptr, ptr %2, align 8, !tbaa !24
  tail call void @lv_buttonmatrix_clear_button_ctrl_all(ptr noundef %3, i32 noundef 49152) #5
  %4 = getelementptr inbounds nuw i8, ptr %0, i64 76
  %5 = load i16, ptr %4, align 4, !tbaa !17
  %6 = zext i16 %5 to i32
  %7 = getelementptr inbounds nuw i8, ptr %0, i64 78
  %8 = load i8, ptr %7, align 2, !tbaa !18
  %9 = sext i8 %8 to i32
  %10 = icmp ult i8 %8, 3
  %.neg.i = sext i1 %10 to i32
  %11 = add nsw i32 %.neg.i, %6
  %12 = add nsw i32 %9, -2
  %13 = select i1 %10, i32 12, i32 0
  %14 = add nsw i32 %12, %13
  %15 = mul nsw i32 %14, 31
  %16 = udiv i32 %15, 12
  %17 = lshr i32 %11, 2
  %18 = udiv i32 %11, 100
  %19 = udiv i32 %11, 400
  %20 = add nsw i32 %11, 1
  %21 = add nuw nsw i32 %20, %17
  %22 = sub nsw i32 %21, %18
  %23 = add nsw i32 %22, %19
  %24 = add nsw i32 %23, %16
  %25 = urem i32 %24, 7
  %26 = getelementptr inbounds nuw i8, ptr %0, i64 80
  %27 = load ptr, ptr %26, align 8, !tbaa !26
  %.not = icmp eq ptr %27, null
  br i1 %.not, label %.loopexit, label %.preheader

.preheader:                                       ; preds = %1
  %28 = getelementptr inbounds nuw i8, ptr %0, i64 88
  %29 = load i64, ptr %28, align 8, !tbaa !27
  %.not26 = icmp eq i64 %29, 0
  br i1 %.not26, label %.loopexit, label %.lr.ph

.lr.ph:                                           ; preds = %.preheader
  %30 = add nuw nsw i32 %25, 6
  br label %31

31:                                               ; preds = %.lr.ph, %50
  %32 = phi i64 [ %29, %.lr.ph ], [ %51, %50 ]
  %33 = phi i64 [ 0, %.lr.ph ], [ %53, %50 ]
  %.025 = phi i32 [ 0, %.lr.ph ], [ %52, %50 ]
  %34 = load ptr, ptr %26, align 8, !tbaa !26
  %35 = getelementptr inbounds nuw %struct.lv_calendar_date_t, ptr %34, i64 %33
  %36 = load i16, ptr %35, align 2, !tbaa !28
  %37 = load i16, ptr %4, align 4, !tbaa !17
  %38 = icmp eq i16 %36, %37
  br i1 %38, label %39, label %50

39:                                               ; preds = %31
  %40 = getelementptr inbounds nuw i8, ptr %35, i64 2
  %41 = load i8, ptr %40, align 2, !tbaa !29
  %42 = load i8, ptr %7, align 2, !tbaa !18
  %43 = icmp eq i8 %41, %42
  br i1 %43, label %44, label %50

44:                                               ; preds = %39
  %45 = load ptr, ptr %2, align 8, !tbaa !24
  %46 = getelementptr inbounds nuw i8, ptr %35, i64 3
  %47 = load i8, ptr %46, align 1, !tbaa !30
  %48 = sext i8 %47 to i32
  %49 = add nsw i32 %30, %48
  tail call void @lv_buttonmatrix_set_button_ctrl(ptr noundef %45, i32 noundef %49, i32 noundef 32768) #5
  %.pre = load i64, ptr %28, align 8, !tbaa !27
  br label %50

50:                                               ; preds = %31, %39, %44
  %51 = phi i64 [ %32, %31 ], [ %32, %39 ], [ %.pre, %44 ]
  %52 = add i32 %.025, 1
  %53 = zext i32 %52 to i64
  %54 = icmp ugt i64 %51, %53
  br i1 %54, label %31, label %.loopexit.loopexit, !llvm.loop !31

.loopexit.loopexit:                               ; preds = %50
  %.pre27 = load i16, ptr %4, align 4, !tbaa !17
  br label %.loopexit

.loopexit:                                        ; preds = %.loopexit.loopexit, %.preheader, %1
  %55 = phi i16 [ %.pre27, %.loopexit.loopexit ], [ %5, %.preheader ], [ %5, %1 ]
  %56 = getelementptr inbounds nuw i8, ptr %0, i64 72
  %57 = load i16, ptr %56, align 8, !tbaa !3
  %58 = icmp eq i16 %55, %57
  br i1 %58, label %59, label %71

59:                                               ; preds = %.loopexit
  %60 = load i8, ptr %7, align 2, !tbaa !18
  %61 = getelementptr inbounds nuw i8, ptr %0, i64 74
  %62 = load i8, ptr %61, align 2, !tbaa !15
  %63 = icmp eq i8 %60, %62
  br i1 %63, label %64, label %71

64:                                               ; preds = %59
  %65 = load ptr, ptr %2, align 8, !tbaa !24
  %66 = getelementptr inbounds nuw i8, ptr %0, i64 75
  %67 = load i8, ptr %66, align 1, !tbaa !16
  %68 = sext i8 %67 to i32
  %69 = add nuw nsw i32 %25, 6
  %70 = add nsw i32 %69, %68
  tail call void @lv_buttonmatrix_set_button_ctrl(ptr noundef %65, i32 noundef %70, i32 noundef 16384) #5
  br label %71

71:                                               ; preds = %64, %59, %.loopexit
  ret void
}